; Function Attrs: mustprogress nounwind uwtable
define hidden void @_ZN16ThreadDumpResultC2Ei(ptr noundef nonnull align 8 dereferenceable(64) %0, i32 noundef %1) unnamed_addr #0 align 2 {
  store i32 %1, ptr %0, align 8
  %3 = getelementptr inbounds i8, ptr %0, i64 4
  %4 = getelementptr inbounds i8, ptr %0, i64 24
  %5 = getelementptr inbounds i8, ptr %0, i64 32
  %6 = tail call align 8 ptr @llvm.threadlocal.address.p0(ptr align 8 @_ZN6Thread12_thr_currentE)
  tail call void @llvm.memset.p0.i64(ptr noundef nonnull align 4 dereferenceable(28) %3, i8 0, i64 28, i1 false)
  %7 = load ptr, ptr %6, align 8
  store ptr null, ptr %5, align 8
  %8 = getelementptr inbounds i8, ptr %0, i64 40
  store ptr %7, ptr %8, align 8
  %9 = getelementptr inbounds i8, ptr %0, i64 48
  store ptr null, ptr %9, align 8
  %10 = getelementptr inbounds i8, ptr %0, i64 56
  store i8 0, ptr %10, align 8
  %11 = getelementptr inbounds i8, ptr %0, i64 57
  store i8 0, ptr %11, align 1
  %12 = load ptr, ptr @Management_lock, align 8
  %.not.i.i.i = icmp eq ptr %12, null
  br i1 %.not.i.i.i, label %_ZN11MutexLockerC2EP5MutexNS0_18SafepointCheckFlagE.exit.i, label %13

13:                                               ; preds = %2
  tail call void @_ZN5Mutex4lockEv(ptr noundef nonnull align 8 dereferenceable(104) %12) #12
  br label %_ZN11MutexLockerC2EP5MutexNS0_18SafepointCheckFlagE.exit.i

_ZN11MutexLockerC2EP5MutexNS0_18SafepointCheckFlagE.exit.i: ; preds = %13, %2
  %14 = load ptr, ptr @_ZN13ThreadService16_threaddump_listE, align 8
  %15 = icmp eq ptr %14, null
  br i1 %15, label %17, label %16

16:                                               ; preds = %_ZN11MutexLockerC2EP5MutexNS0_18SafepointCheckFlagE.exit.i
  store ptr %14, ptr %4, align 8
  br label %17

17:                                               ; preds = %16, %_ZN11MutexLockerC2EP5MutexNS0_18SafepointCheckFlagE.exit.i
  store ptr %0, ptr @_ZN13ThreadService16_threaddump_listE, align 8
  br i1 %.not.i.i.i, label %_ZN13ThreadService15add_thread_dumpEP16ThreadDumpResult.exit, label %18

18:                                               ; preds = %17
  tail call void @_ZN5Mutex6unlockEv(ptr noundef nonnull align 8 dereferenceable(104) %12) #12
  br label %_ZN13ThreadService15add_thread_dumpEP16ThreadDumpResult.exit

_ZN13ThreadService15add_thread_dumpEP16ThreadDumpResult.exit: ; preds = %17, %18
  ret void
}